target datalayout = "e-m:e-p270:32:32-p271:32:32-p272:64:64-i64:64-i128:128-f80:128-n8:16:32:64-S128"
target triple = "x86_64-pc-linux-gnu"

%"struct.llvm::sampleprof::LineLocation" = type { i32, i32 }
%"class.llvm::sampleprof::FunctionId" = type { ptr, i64 }
%"struct.std::_Rb_tree_header" = type { %"struct.std::_Rb_tree_node_base", i64 }
%"struct.std::_Rb_tree_node_base" = type { i32, ptr, ptr, ptr }
%"class.llvm::sampleprof::SampleContext" = type { %"class.llvm::sampleprof::FunctionId", %"class.llvm::ArrayRef", i32, i32 }
%"class.llvm::ArrayRef" = type { ptr, i64 }
%"struct.llvm::sampleprof::ProfileConverter::FrameNode" = type { %"class.std::map.162", %"class.llvm::sampleprof::FunctionId", ptr, %"struct.llvm::sampleprof::LineLocation" }
%"class.std::map.162" = type { %"class.std::_Rb_tree.163" }
%"class.std::_Rb_tree.163" = type { %"struct.std::_Rb_tree<unsigned long, std::pair<const unsigned long, llvm::sampleprof::ProfileConverter::FrameNode>, std::_Select1st<std::pair<const unsigned long, llvm::sampleprof::ProfileConverter::FrameNode>>, std::less<unsigned long>>::_Rb_tree_impl" }
%"struct.std::_Rb_tree<unsigned long, std::pair<const unsigned long, llvm::sampleprof::ProfileConverter::FrameNode>, std::_Select1st<std::pair<const unsigned long, llvm::sampleprof::ProfileConverter::FrameNode>>, std::less<unsigned long>>::_Rb_tree_impl" = type { [8 x i8], %"struct.std::_Rb_tree_header" }
%"struct.llvm::sampleprof::SampleContextFrame" = type { %"class.llvm::sampleprof::FunctionId", %"struct.llvm::sampleprof::LineLocation" }
%"class.llvm::sampleprof::ProfileConverter" = type { ptr, %"struct.llvm::sampleprof::ProfileConverter::FrameNode" }

; Function Attrs: mustprogress nounwind uwtable
define linkonce_odr hidden noundef ptr @_ZNK4llvm8ArrayRefINS_10sampleprof18SampleContextFrameEE3endEv(ptr noundef nonnull align 8 dereferenceable(16) %0) #1 comdat align 2 {
  %2 = alloca ptr, align 8
  store ptr %0, ptr %2, align 8
  %3 = load ptr, ptr %2, align 8
  %4 = getelementptr inbounds nuw %"class.llvm::ArrayRef", ptr %3, i32 0, i32 0
  %5 = load ptr, ptr %4, align 8
  %6 = getelementptr inbounds nuw %"class.llvm::ArrayRef", ptr %3, i32 0, i32 1
  %7 = load i64, ptr %6, align 8
  %8 = getelementptr inbounds %"struct.llvm::sampleprof::SampleContextFrame", ptr %5, i64 %7
  ret ptr %8
}

; Function Attrs: mustprogress nounwind uwtable
define linkonce_odr hidden noundef ptr @_ZNK4llvm8ArrayRefINS_10sampleprof18SampleContextFrameEE5beginEv(ptr noundef nonnull align 8 dereferenceable(16) %0) #1 comdat align 2 {
  %2 = alloca ptr, align 8
  store ptr %0, ptr %2, align 8
  %3 = load ptr, ptr %2, align 8
  %4 = getelementptr inbounds nuw %"class.llvm::ArrayRef", ptr %3, i32 0, i32 0
  %5 = load ptr, ptr %4, align 8
  ret ptr %5
}

; Function Attrs: mustprogress nounwind uwtable
define linkonce_odr hidden { ptr, i64 } @_ZNK4llvm10sampleprof13SampleContext16getContextFramesEv(ptr noundef nonnull align 8 dereferenceable(40) %0) #1 comdat align 2 {
  %2 = alloca %"class.llvm::ArrayRef", align 8
  %3 = alloca ptr, align 8
  store ptr %0, ptr %3, align 8
  %4 = load ptr, ptr %3, align 8
  %5 = getelementptr inbounds nuw %"class.llvm::sampleprof::SampleContext", ptr %4, i32 0, i32 1
  call void @llvm.memcpy.p0.p0.i64(ptr align 8 %2, ptr align 8 %5, i64 16, i1 false)
  %6 = load { ptr, i64 }, ptr %2, align 8
  ret { ptr, i64 } %6
}

; Function Attrs: mustprogress nounwind uwtable
define linkonce_odr hidden void @_ZN4llvm10sampleprof12LineLocationC2Ejj(ptr noundef nonnull align 4 dereferenceable(8) %0, i32 noundef %1, i32 noundef %2) unnamed_addr #1 comdat align 2 {
  %4 = alloca ptr, align 8
  %5 = alloca i32, align 4
  %6 = alloca i32, align 4
  store ptr %0, ptr %4, align 8
  store i32 %1, ptr %5, align 4
  store i32 %2, ptr %6, align 4
  %7 = load ptr, ptr %4, align 8
  %8 = getelementptr inbounds nuw %"struct.llvm::sampleprof::LineLocation", ptr %7, i32 0, i32 0
  %9 = load i32, ptr %5, align 4
  store i32 %9, ptr %8, align 4
  %10 = getelementptr inbounds nuw %"struct.llvm::sampleprof::LineLocation", ptr %7, i32 0, i32 1
  %11 = load i32, ptr %6, align 4
  store i32 %11, ptr %10, align 4
  ret void
}

; Function Attrs: mustprogress nounwind uwtable
define dso_local noundef ptr @_ZN4llvm10sampleprof16ProfileConverter22getOrCreateContextPathERKNS0_13SampleContextE(ptr noundef nonnull align 8 dereferenceable(88) %0, ptr noundef nonnull align 8 dereferenceable(40) %1) #1 align 2 {
  %3 = alloca ptr, align 8
  %4 = alloca ptr, align 8
  %5 = alloca ptr, align 8
  %6 = alloca %"struct.llvm::sampleprof::LineLocation", align 4
  %7 = alloca ptr, align 8
  %8 = alloca %"class.llvm::ArrayRef", align 8
  %9 = alloca ptr, align 8
  %10 = alloca ptr, align 8
  %11 = alloca ptr, align 8
  %12 = alloca %"class.llvm::sampleprof::FunctionId", align 8
  store ptr %0, ptr %3, align 8
  store ptr %1, ptr %4, align 8
  %13 = load ptr, ptr %3, align 8
  %14 = getelementptr inbounds nuw %"class.llvm::sampleprof::ProfileConverter", ptr %13, i32 0, i32 1
  store ptr %14, ptr %5, align 8
  call void @_ZN4llvm10sampleprof12LineLocationC2Ejj(ptr noundef nonnull align 4 dereferenceable(8) %6, i32 noundef 0, i32 noundef 0)
  %15 = load ptr, ptr %4, align 8
  %16 = call { ptr, i64 } @_ZNK4llvm10sampleprof13SampleContext16getContextFramesEv(ptr noundef nonnull align 8 dereferenceable(40) %15)
  %17 = getelementptr inbounds nuw { ptr, i64 }, ptr %8, i32 0, i32 0
  %18 = extractvalue { ptr, i64 } %16, 0
  store ptr %18, ptr %17, align 8
  %19 = getelementptr inbounds nuw { ptr, i64 }, ptr %8, i32 0, i32 1
  %20 = extractvalue { ptr, i64 } %16, 1
  store i64 %20, ptr %19, align 8
  store ptr %8, ptr %7, align 8
  %21 = load ptr, ptr %7, align 8
  %22 = call noundef ptr @_ZNK4llvm8ArrayRefINS_10sampleprof18SampleContextFrameEE5beginEv(ptr noundef nonnull align 8 dereferenceable(16) %21)
  store ptr %22, ptr %9, align 8
  %23 = load ptr, ptr %7, align 8
  %24 = call noundef ptr @_ZNK4llvm8ArrayRefINS_10sampleprof18SampleContextFrameEE3endEv(ptr noundef nonnull align 8 dereferenceable(16) %23)
  store ptr %24, ptr %10, align 8
  br label %25

25:                                               ; preds = %41, %2
  %26 = load ptr, ptr %9, align 8
  %27 = load ptr, ptr %10, align 8
  %28 = icmp ne ptr %26, %27
  br i1 %28, label %29, label %44

29:                                               ; preds = %25
  %30 = load ptr, ptr %9, align 8
  store ptr %30, ptr %11, align 8
  %31 = load ptr, ptr %5, align 8
  %32 = load ptr, ptr %11, align 8
  %33 = getelementptr inbounds nuw %"struct.llvm::sampleprof::SampleContextFrame", ptr %32, i32 0, i32 0
  call void @llvm.memcpy.p0.p0.i64(ptr align 8 %12, ptr align 8 %33, i64 16, i1 false)
  %34 = getelementptr inbounds nuw { ptr, i64 }, ptr %12, i32 0, i32 0
  %35 = load ptr, ptr %34, align 8
  %36 = getelementptr inbounds nuw { ptr, i64 }, ptr %12, i32 0, i32 1
  %37 = load i64, ptr %36, align 8
  %38 = call noundef ptr @_ZN4llvm10sampleprof16ProfileConverter9FrameNode21getOrCreateChildFrameERKNS0_12LineLocationENS0_10FunctionIdE(ptr noundef nonnull align 8 dereferenceable(80) %31, ptr noundef nonnull align 4 dereferenceable(8) %6, ptr %35, i64 %37)
  store ptr %38, ptr %5, align 8
  %39 = load ptr, ptr %11, align 8
  %40 = getelementptr inbounds nuw %"struct.llvm::sampleprof::SampleContextFrame", ptr %39, i32 0, i32 1
  call void @llvm.memcpy.p0.p0.i64(ptr align 4 %6, ptr align 8 %40, i64 8, i1 false)
  br label %41

41:                                               ; preds = %29
  %42 = load ptr, ptr %9, align 8
  %43 = getelementptr inbounds %"struct.llvm::sampleprof::SampleContextFrame", ptr %42, i32 1
  store ptr %43, ptr %9, align 8
  br label %25

44:                                               ; preds = %25
  %45 = load ptr, ptr %5, align 8
  ret ptr %45
}