; Function Attrs: mustprogress nounwind uwtable
define dso_local noundef nonnull ptr @_ZN4llvm10sampleprof16ProfileConverter22getOrCreateContextPathERKNS0_13SampleContextE(ptr noundef nonnull align 8 dereferenceable(88) %0, ptr noundef nonnull readonly align 8 captures(none) dereferenceable(40) %1) local_unnamed_addr #0 align 2 {
  %3 = alloca %"struct.llvm::sampleprof::LineLocation", align 8
  %4 = getelementptr inbounds nuw i8, ptr %0, i64 8
  store i32 0, ptr %3, align 8
  %5 = getelementptr inbounds nuw i8, ptr %3, i64 4
  store i32 0, ptr %5, align 4
  %6 = getelementptr inbounds nuw i8, ptr %1, i64 16
  %.sroa.0.0.copyload.i = load ptr, ptr %6, align 8
  %.sroa.2.0..sroa_idx.i = getelementptr inbounds nuw i8, ptr %1, i64 24
  %.sroa.2.0.copyload.i = load i64, ptr %.sroa.2.0..sroa_idx.i, align 8
  %7 = getelementptr inbounds %"struct.llvm::sampleprof::SampleContextFrame", ptr %.sroa.0.0.copyload.i, i64 %.sroa.2.0.copyload.i
  %.not14 = icmp eq i64 %.sroa.2.0.copyload.i, 0
  br i1 %.not14, label %._crit_edge, label %.lr.ph

.lr.ph:                                           ; preds = %2, %.lr.ph
  %.016 = phi ptr [ %8, %.lr.ph ], [ %4, %2 ]
  %.01215 = phi ptr [ %11, %.lr.ph ], [ %.sroa.0.0.copyload.i, %2 ]
  %.sroa.0.0.copyload = load ptr, ptr %.01215, align 8
  %.sroa.2.0..sroa_idx = getelementptr inbounds nuw i8, ptr %.01215, i64 8
  %.sroa.2.0.copyload = load i64, ptr %.sroa.2.0..sroa_idx, align 8
  %8 = call noundef ptr @_ZN4llvm10sampleprof16ProfileConverter9FrameNode21getOrCreateChildFrameERKNS0_12LineLocationENS0_10FunctionIdE(ptr noundef nonnull align 8 dereferenceable(80) %.016, ptr noundef nonnull align 4 dereferenceable(8) %3, ptr %.sroa.0.0.copyload, i64 %.sroa.2.0.copyload)
  %9 = getelementptr inbounds nuw i8, ptr %.01215, i64 16
  %10 = load i64, ptr %9, align 8
  store i64 %10, ptr %3, align 8
  %11 = getelementptr inbounds nuw i8, ptr %.01215, i64 24
  %.not = icmp eq ptr %11, %7
  br i1 %.not, label %._crit_edge, label %.lr.ph

._crit_edge:                                      ; preds = %.lr.ph, %2
  %.0.lcssa = phi ptr [ %4, %2 ], [ %8, %.lr.ph ]
  ret ptr %.0.lcssa
}